; Function Attrs: mustprogress nofree norecurse nosync nounwind memory(argmem: write) uwtable
define void @_ZN32pxrInternal_v0_24__pxrReserved__21pxr_double_conversion6Bignum12AssignUInt64Em(ptr nocapture noundef nonnull writeonly align 4 dereferenceable(516) %0, i64 noundef %1) local_unnamed_addr #2 align 2 {
  store i16 0, ptr %0, align 4
  %3 = getelementptr inbounds nuw i8, ptr %0, i64 2
  store i16 0, ptr %3, align 2
  %.not6 = icmp eq i64 %1, 0
  br i1 %.not6, label %12, label %.lr.ph

.lr.ph:                                           ; preds = %2
  %4 = getelementptr inbounds nuw i8, ptr %0, i64 4
  br label %5

5:                                                ; preds = %.lr.ph, %5
  %indvars.iv = phi i64 [ 0, %.lr.ph ], [ %indvars.iv.next, %5 ]
  %.057 = phi i64 [ %1, %.lr.ph ], [ %10, %5 ]
  %6 = phi i16 [ 0, %.lr.ph ], [ %11, %5 ]
  %7 = trunc i64 %.057 to i32
  %8 = and i32 %7, 268435455
  %9 = getelementptr inbounds [128 x i32], ptr %4, i64 0, i64 %indvars.iv
  store i32 %8, ptr %9, align 4
  %10 = lshr i64 %.057, 28
  %11 = add i16 %6, 1
  %indvars.iv.next = add nuw nsw i64 %indvars.iv, 1
  %.not = icmp ult i64 %.057, 268435456
  br i1 %.not, label %._crit_edge, label %5, !llvm.loop !4

._crit_edge:                                      ; preds = %5
  store i16 %11, ptr %0, align 4
  br label %12

12:                                               ; preds = %._crit_edge, %2
  ret void
}